; Function Attrs: nounwind uwtable
define dso_local void @assign_recovery_target_time(ptr noundef readonly captures(address_is_null) %0, ptr noundef readnone captures(none) %1) local_unnamed_addr #2 {
  %3 = load i32, ptr @recoveryTarget, align 4
  %4 = and i32 %3, -3
  %or.cond.not = icmp eq i32 %4, 0
  br i1 %or.cond.not, label %6, label %5

5:                                                ; preds = %2
  tail call fastcc void @error_multiple_recovery_targets() #28
  unreachable

6:                                                ; preds = %2
  %.not = icmp eq ptr %0, null
  br i1 %.not, label %8, label %7

7:                                                ; preds = %6
  %strcmpload = load i8, ptr %0, align 1
  %.not3 = icmp eq i8 %strcmpload, 0
  br i1 %.not3, label %8, label %9

8:                                                ; preds = %7, %6
  br label %9

9:                                                ; preds = %7, %8
  %storemerge = phi i32 [ 0, %8 ], [ 2, %7 ]
  store i32 %storemerge, ptr @recoveryTarget, align 4
  ret void
}